target datalayout = "e-m:e-p270:32:32-p271:32:32-p272:64:64-i64:64-i128:128-f80:128-n8:16:32:64-S128"
target triple = "x86_64-pc-linux-gnu"

%struct.RString = type { %struct.RBasic, i64, %union.anon }
%struct.RBasic = type { i64, i64 }
%union.anon = type { %struct.anon }
%struct.anon = type { ptr, %union.anon.0 }
%union.anon.0 = type { i64 }
%struct.anon.1 = type { [1 x i8] }
%struct.OnigEncodingTypeST = type { ptr, ptr, i32, i32, ptr, ptr, ptr, ptr, ptr, ptr, ptr, ptr, ptr, ptr, ptr, ptr, ptr, i32, i32 }

; Function Attrs: inlinehint nounwind sspstrong willreturn memory(read) uwtable
define internal i64 @RB_FL_TEST_RAW(i64 noundef %0, i64 noundef %1) #3 {
  %3 = alloca i64, align 8
  %4 = alloca i64, align 8
  store i64 %0, ptr %3, align 8, !tbaa !6
  store i64 %1, ptr %4, align 8, !tbaa !6
  %5 = load i64, ptr %3, align 8, !tbaa !6
  %6 = inttoptr i64 %5 to ptr
  %7 = getelementptr inbounds nuw %struct.RBasic, ptr %6, i32 0, i32 0
  %8 = load i64, ptr %7, align 8, !tbaa !21
  %9 = load i64, ptr %4, align 8, !tbaa !6
  %10 = and i64 %8, %9
  ret i64 %10
}

; Function Attrs: inlinehint nounwind sspstrong willreturn memory(read) uwtable
define internal i64 @RSTRING_LEN(i64 noundef %0) #3 {
  %2 = alloca i64, align 8
  store i64 %0, ptr %2, align 8, !tbaa !6
  %3 = load i64, ptr %2, align 8, !tbaa !6
  %4 = inttoptr i64 %3 to ptr
  %5 = getelementptr inbounds nuw %struct.RString, ptr %4, i32 0, i32 1
  %6 = load i64, ptr %5, align 8, !tbaa !18
  ret i64 %6
}

; Function Attrs: inlinehint nounwind sspstrong willreturn memory(read) uwtable
define internal zeroext i1 @RB_FL_ANY_RAW(i64 noundef %0, i64 noundef %1) #3 {
  %3 = alloca i64, align 8
  %4 = alloca i64, align 8
  store i64 %0, ptr %3, align 8, !tbaa !6
  store i64 %1, ptr %4, align 8, !tbaa !6
  %5 = load i64, ptr %3, align 8, !tbaa !6
  %6 = load i64, ptr %4, align 8, !tbaa !6
  %7 = call i64 @RB_FL_TEST_RAW(i64 noundef %5, i64 noundef %6) #20
  %8 = icmp ne i64 %7, 0
  ret i1 %8
}

; Function Attrs: inlinehint nounwind sspstrong uwtable
define internal i32 @rb_enc_mbc_to_codepoint(ptr noundef %0, ptr noundef %1, ptr noundef %2) #4 {
  %4 = alloca ptr, align 8
  %5 = alloca ptr, align 8
  %6 = alloca ptr, align 8
  %7 = alloca ptr, align 8
  %8 = alloca ptr, align 8
  store ptr %0, ptr %4, align 8, !tbaa !10
  store ptr %1, ptr %5, align 8, !tbaa !10
  store ptr %2, ptr %6, align 8, !tbaa !13
  call void @llvm.lifetime.start.p0(i64 8, ptr %7) #19
  %9 = load ptr, ptr %4, align 8, !tbaa !10
  store ptr %9, ptr %7, align 8, !tbaa !10
  call void @llvm.lifetime.start.p0(i64 8, ptr %8) #19
  %10 = load ptr, ptr %5, align 8, !tbaa !10
  store ptr %10, ptr %8, align 8, !tbaa !10
  %11 = load ptr, ptr %6, align 8, !tbaa !13
  %12 = getelementptr inbounds nuw %struct.OnigEncodingTypeST, ptr %11, i32 0, i32 5
  %13 = load ptr, ptr %12, align 8, !tbaa !25
  %14 = load ptr, ptr %7, align 8, !tbaa !10
  %15 = load ptr, ptr %8, align 8, !tbaa !10
  %16 = load ptr, ptr %6, align 8, !tbaa !13
  %17 = call i32 %13(ptr noundef %14, ptr noundef %15, ptr noundef %16)
  call void @llvm.lifetime.end.p0(i64 8, ptr %8) #19
  call void @llvm.lifetime.end.p0(i64 8, ptr %7) #19
  ret i32 %17
}

; Function Attrs: inlinehint nounwind sspstrong uwtable
define internal i32 @rb_enc_mbminlen(ptr noundef %0) #4 {
  %2 = alloca ptr, align 8
  store ptr %0, ptr %2, align 8, !tbaa !13
  %3 = load ptr, ptr %2, align 8, !tbaa !13
  %4 = getelementptr inbounds nuw %struct.OnigEncodingTypeST, ptr %3, i32 0, i32 3
  %5 = load i32, ptr %4, align 4, !tbaa !22
  ret i32 %5
}

; Function Attrs: inlinehint nounwind sspstrong willreturn memory(read, argmem: readwrite) uwtable
define internal void @rbimpl_rstring_getmem(ptr dead_on_unwind noalias writable sret(%struct.RString) align 8 %0, i64 noundef %1) #9 {
  %3 = alloca i64, align 8
  store i64 %1, ptr %3, align 8, !tbaa !6
  %4 = load i64, ptr %3, align 8, !tbaa !6
  %5 = call zeroext i1 @RB_FL_ANY_RAW(i64 noundef %4, i64 noundef 8192) #20
  br i1 %5, label %6, label %9

6:                                                ; preds = %2
  %7 = load i64, ptr %3, align 8, !tbaa !6
  %8 = inttoptr i64 %7 to ptr
  call void @llvm.memcpy.p0.p0.i64(ptr align 8 %0, ptr align 8 %8, i64 40, i1 false), !tbaa.struct !24
  br label %20

9:                                                ; preds = %2
  %10 = load i64, ptr %3, align 8, !tbaa !6
  %11 = call i64 @RSTRING_LEN(i64 noundef %10) #20
  %12 = getelementptr inbounds nuw %struct.RString, ptr %0, i32 0, i32 1
  store i64 %11, ptr %12, align 8, !tbaa !18
  %13 = load i64, ptr %3, align 8, !tbaa !6
  %14 = inttoptr i64 %13 to ptr
  %15 = getelementptr inbounds nuw %struct.RString, ptr %14, i32 0, i32 2
  %16 = getelementptr inbounds nuw %struct.anon.1, ptr %15, i32 0, i32 0
  %17 = getelementptr inbounds [1 x i8], ptr %16, i64 0, i64 0
  %18 = getelementptr inbounds nuw %struct.RString, ptr %0, i32 0, i32 2
  %19 = getelementptr inbounds nuw %struct.anon, ptr %18, i32 0, i32 0
  store ptr %17, ptr %19, align 8, !tbaa !17
  br label %20

20:                                               ; preds = %9, %6
  ret void
}

; Function Attrs: nounwind sspstrong uwtable
define internal i64 @bug_str_cstr_term_char(i64 noundef %0) #0 {
  %2 = alloca i64, align 8
  %3 = alloca i64, align 8
  %4 = alloca i64, align 8
  %5 = alloca ptr, align 8
  %6 = alloca i32, align 4
  %7 = alloca ptr, align 8
  %8 = alloca %struct.RString, align 8
  %9 = alloca i64, align 8
  %10 = alloca i32, align 4
  store i64 %0, ptr %3, align 8, !tbaa !6
  call void @llvm.lifetime.start.p0(i64 8, ptr %4) #19
  call void @llvm.lifetime.start.p0(i64 8, ptr %5) #19
  call void @llvm.lifetime.start.p0(i64 4, ptr %6) #19
  call void @llvm.lifetime.start.p0(i64 8, ptr %7) #19
  %11 = load i64, ptr %3, align 8, !tbaa !6
  %12 = call ptr @rb_enc_get(i64 noundef %11)
  store ptr %12, ptr %7, align 8, !tbaa !13
  call void @llvm.lifetime.start.p0(i64 40, ptr %8) #19
  %13 = load i64, ptr %3, align 8, !tbaa !6
  call void @rbimpl_rstring_getmem(ptr dead_on_unwind writable sret(%struct.RString) align 8 %8, i64 noundef %13) #21
  %14 = getelementptr inbounds nuw %struct.RString, ptr %8, i32 0, i32 2
  %15 = getelementptr inbounds nuw %struct.anon, ptr %14, i32 0, i32 0
  %16 = load ptr, ptr %15, align 8, !tbaa !17
  store ptr %16, ptr %5, align 8, !tbaa !10
  %17 = getelementptr inbounds nuw %struct.RString, ptr %8, i32 0, i32 1
  %18 = load i64, ptr %17, align 8, !tbaa !18
  store i64 %18, ptr %4, align 8, !tbaa !6
  store i64 %18, ptr %9, align 8, !tbaa !6
  call void @llvm.lifetime.end.p0(i64 40, ptr %8) #19
  %19 = load i64, ptr %4, align 8, !tbaa !6
  %20 = load ptr, ptr %5, align 8, !tbaa !10
  %21 = getelementptr inbounds i8, ptr %20, i64 %19
  store ptr %21, ptr %5, align 8, !tbaa !10
  %22 = load ptr, ptr %7, align 8, !tbaa !13
  %23 = call i32 @rb_enc_mbminlen(ptr noundef %22)
  %24 = sext i32 %23 to i64
  store i64 %24, ptr %4, align 8, !tbaa !6
  %25 = load ptr, ptr %5, align 8, !tbaa !10
  %26 = load ptr, ptr %5, align 8, !tbaa !10
  %27 = load i64, ptr %4, align 8, !tbaa !6
  %28 = getelementptr inbounds i8, ptr %26, i64 %27
  %29 = load ptr, ptr %7, align 8, !tbaa !13
  %30 = call i32 @rb_enc_precise_mbclen(ptr noundef %25, ptr noundef %28, ptr noundef %29)
  store i32 %30, ptr %6, align 4, !tbaa !15
  %31 = load i32, ptr %6, align 4, !tbaa !15
  %32 = icmp slt i32 0, %31
  br i1 %32, label %37, label %33

33:                                               ; preds = %1
  %34 = load ptr, ptr %5, align 8, !tbaa !10
  %35 = load i8, ptr %34, align 1, !tbaa !17
  %36 = zext i8 %35 to i32
  store i32 %36, ptr %6, align 4, !tbaa !15
  br label %48

37:                                               ; preds = %1
  %38 = load ptr, ptr %5, align 8, !tbaa !10
  %39 = load ptr, ptr %5, align 8, !tbaa !10
  %40 = load i64, ptr %4, align 8, !tbaa !6
  %41 = getelementptr inbounds i8, ptr %39, i64 %40
  %42 = load ptr, ptr %7, align 8, !tbaa !13
  %43 = call i32 @rb_enc_mbc_to_codepoint(ptr noundef %38, ptr noundef %41, ptr noundef %42)
  store i32 %43, ptr %6, align 4, !tbaa !15
  %44 = load i32, ptr %6, align 4, !tbaa !15
  %45 = icmp ne i32 %44, 0
  br i1 %45, label %47, label %46

46:                                               ; preds = %37
  store i64 4, ptr %2, align 8
  store i32 1, ptr %10, align 4
  br label %52

47:                                               ; preds = %37
  br label %48

48:                                               ; preds = %47, %33
  %49 = load i32, ptr %6, align 4, !tbaa !15
  %50 = load ptr, ptr %7, align 8, !tbaa !13
  %51 = call i64 @rb_enc_uint_chr(i32 noundef %49, ptr noundef %50)
  store i64 %51, ptr %2, align 8
  store i32 1, ptr %10, align 4
  br label %52

52:                                               ; preds = %48, %46
  call void @llvm.lifetime.end.p0(i64 8, ptr %7) #19
  call void @llvm.lifetime.end.p0(i64 4, ptr %6) #19
  call void @llvm.lifetime.end.p0(i64 8, ptr %5) #19
  call void @llvm.lifetime.end.p0(i64 8, ptr %4) #19
  %53 = load i64, ptr %2, align 8
  ret i64 %53
}