; Function Attrs: nounwind sspstrong uwtable
define internal i64 @bug_str_cstr_term_char(i64 noundef %0) #0 {
  %2 = tail call ptr @rb_enc_get(i64 noundef %0) #9
  %3 = inttoptr i64 %0 to ptr
  %4 = load i64, ptr %3, align 8, !tbaa !18, !noalias !23
  %5 = and i64 %4, 8192
  %.not.i = icmp eq i64 %5, 0
  %6 = getelementptr inbounds nuw i8, ptr %3, i64 24
  br i1 %.not.i, label %rbimpl_rstring_getmem.exit, label %7

7:                                                ; preds = %1
  %.sroa.5.0.copyload = load ptr, ptr %6, align 8
  br label %rbimpl_rstring_getmem.exit

rbimpl_rstring_getmem.exit:                       ; preds = %1, %7
  %.sroa.5.0 = phi ptr [ %.sroa.5.0.copyload, %7 ], [ %6, %1 ]
  %.sroa.3.0.in = getelementptr inbounds nuw i8, ptr %3, i64 16
  %.sroa.3.0 = load i64, ptr %.sroa.3.0.in, align 8, !tbaa !6
  %8 = getelementptr inbounds i8, ptr %.sroa.5.0, i64 %.sroa.3.0
  %9 = getelementptr i8, ptr %2, i64 20
  %.val = load i32, ptr %9, align 4, !tbaa !13
  %10 = sext i32 %.val to i64
  %11 = getelementptr inbounds i8, ptr %8, i64 %10
  %12 = tail call i32 @rb_enc_precise_mbclen(ptr noundef %8, ptr noundef %11, ptr noundef %2) #9
  %13 = icmp sgt i32 %12, 0
  br i1 %13, label %17, label %14

14:                                               ; preds = %rbimpl_rstring_getmem.exit
  %15 = load i8, ptr %8, align 1, !tbaa !19
  %16 = zext i8 %15 to i32
  br label %21

17:                                               ; preds = %rbimpl_rstring_getmem.exit
  %18 = getelementptr inbounds nuw i8, ptr %2, i64 32
  %19 = load ptr, ptr %18, align 8, !tbaa !26
  %20 = tail call i32 %19(ptr noundef %8, ptr noundef %11, ptr noundef nonnull %2) #9
  %.not = icmp eq i32 %20, 0
  br i1 %.not, label %23, label %21

21:                                               ; preds = %17, %14
  %.018 = phi i32 [ %20, %17 ], [ %16, %14 ]
  %22 = tail call i64 @rb_enc_uint_chr(i32 noundef %.018, ptr noundef nonnull %2) #9
  br label %23

23:                                               ; preds = %17, %21
  %.0 = phi i64 [ %22, %21 ], [ 4, %17 ]
  ret i64 %.0
}